target datalayout = "e-m:e-p270:32:32-p271:32:32-p272:64:64-i64:64-i128:128-f80:128-n8:16:32:64-S128"
target triple = "x86_64-unknown-linux-gnu"

%struct.stb_lexer = type { ptr, ptr, ptr, ptr, i32, ptr, ptr, i64, double, i64, ptr, i32 }

; Function Attrs: nounwind uwtable
define i32 @stb__clex_token(ptr noundef %lexer, i32 noundef %token, ptr noundef %start, ptr noundef %end) #0 {
entry:
  %lexer.addr = alloca ptr, align 8
  %token.addr = alloca i32, align 4
  %start.addr = alloca ptr, align 8
  %end.addr = alloca ptr, align 8
  store ptr %lexer, ptr %lexer.addr, align 8
  store i32 %token, ptr %token.addr, align 4
  store ptr %start, ptr %start.addr, align 8
  store ptr %end, ptr %end.addr, align 8
  %0 = load i32, ptr %token.addr, align 4
  %conv = sext i32 %0 to i64
  %1 = load ptr, ptr %lexer.addr, align 8
  %token1 = getelementptr inbounds %struct.stb_lexer, ptr %1, i32 0, i32 7
  store i64 %conv, ptr %token1, align 8
  %2 = load ptr, ptr %start.addr, align 8
  %3 = load ptr, ptr %lexer.addr, align 8
  %where_firstchar = getelementptr inbounds %struct.stb_lexer, ptr %3, i32 0, i32 5
  store ptr %2, ptr %where_firstchar, align 8
  %4 = load ptr, ptr %end.addr, align 8
  %5 = load ptr, ptr %lexer.addr, align 8
  %where_lastchar = getelementptr inbounds %struct.stb_lexer, ptr %5, i32 0, i32 6
  store ptr %4, ptr %where_lastchar, align 8
  %6 = load ptr, ptr %end.addr, align 8
  %add.ptr = getelementptr inbounds i8, ptr %6, i64 1
  %7 = load ptr, ptr %lexer.addr, align 8
  %parse_point = getelementptr inbounds %struct.stb_lexer, ptr %7, i32 0, i32 2
  store ptr %add.ptr, ptr %parse_point, align 8
  ret i32 1
}

; Function Attrs: nounwind uwtable
define i32 @stb__clex_parse_string(ptr noundef %lexer, ptr noundef %p, i32 noundef %type) #0 {
entry:
  %retval = alloca i32, align 4
  %lexer.addr = alloca ptr, align 8
  %p.addr = alloca ptr, align 8
  %type.addr = alloca i32, align 4
  %start = alloca ptr, align 8
  %delim = alloca i8, align 1
  %out = alloca ptr, align 8
  %outend = alloca ptr, align 8
  %n = alloca i32, align 4
  %q = alloca ptr, align 8
  store ptr %lexer, ptr %lexer.addr, align 8
  store ptr %p, ptr %p.addr, align 8
  store i32 %type, ptr %type.addr, align 4
  %0 = load ptr, ptr %p.addr, align 8
  store ptr %0, ptr %start, align 8
  %1 = load ptr, ptr %p.addr, align 8
  %incdec.ptr = getelementptr inbounds i8, ptr %1, i32 1
  store ptr %incdec.ptr, ptr %p.addr, align 8
  %2 = load i8, ptr %1, align 1
  store i8 %2, ptr %delim, align 1
  %3 = load ptr, ptr %lexer.addr, align 8
  %string_storage = getelementptr inbounds %struct.stb_lexer, ptr %3, i32 0, i32 3
  %4 = load ptr, ptr %string_storage, align 8
  store ptr %4, ptr %out, align 8
  %5 = load ptr, ptr %lexer.addr, align 8
  %string_storage1 = getelementptr inbounds %struct.stb_lexer, ptr %5, i32 0, i32 3
  %6 = load ptr, ptr %string_storage1, align 8
  %7 = load ptr, ptr %lexer.addr, align 8
  %string_storage_len = getelementptr inbounds %struct.stb_lexer, ptr %7, i32 0, i32 4
  %8 = load i32, ptr %string_storage_len, align 8
  %idx.ext = sext i32 %8 to i64
  %add.ptr = getelementptr inbounds i8, ptr %6, i64 %idx.ext
  store ptr %add.ptr, ptr %outend, align 8
  br label %while.cond

while.cond:                                       ; preds = %if.end19, %entry
  %9 = load ptr, ptr %p.addr, align 8
  %10 = load i8, ptr %9, align 1
  %conv = sext i8 %10 to i32
  %11 = load i8, ptr %delim, align 1
  %conv2 = sext i8 %11 to i32
  %cmp = icmp ne i32 %conv, %conv2
  br i1 %cmp, label %while.body, label %while.end

while.body:                                       ; preds = %while.cond
  %12 = load ptr, ptr %p.addr, align 8
  %13 = load i8, ptr %12, align 1
  %conv4 = sext i8 %13 to i32
  %cmp5 = icmp eq i32 %conv4, 92
  br i1 %cmp5, label %if.then, label %if.else

if.then:                                          ; preds = %while.body
  %14 = load ptr, ptr %p.addr, align 8
  %call = call i32 @stb__clex_parse_char(ptr noundef %14, ptr noundef %q)
  store i32 %call, ptr %n, align 4
  %15 = load i32, ptr %n, align 4
  %cmp7 = icmp slt i32 %15, 0
  br i1 %cmp7, label %if.then9, label %if.end

if.then9:                                         ; preds = %if.then
  %16 = load ptr, ptr %lexer.addr, align 8
  %17 = load ptr, ptr %start, align 8
  %18 = load ptr, ptr %q, align 8
  %call10 = call i32 @stb__clex_token(ptr noundef %16, i32 noundef 257, ptr noundef %17, ptr noundef %18)
  store i32 %call10, ptr %retval, align 4
  br label %return

if.end:                                           ; preds = %if.then
  %19 = load ptr, ptr %q, align 8
  store ptr %19, ptr %p.addr, align 8
  br label %if.end13

if.else:                                          ; preds = %while.body
  %20 = load ptr, ptr %p.addr, align 8
  %incdec.ptr11 = getelementptr inbounds i8, ptr %20, i32 1
  store ptr %incdec.ptr11, ptr %p.addr, align 8
  %21 = load i8, ptr %20, align 1
  %conv12 = zext i8 %21 to i32
  store i32 %conv12, ptr %n, align 4
  br label %if.end13

if.end13:                                         ; preds = %if.else, %if.end
  %22 = load ptr, ptr %out, align 8
  %add.ptr14 = getelementptr inbounds i8, ptr %22, i64 1
  %23 = load ptr, ptr %outend, align 8
  %cmp15 = icmp ugt ptr %add.ptr14, %23
  br i1 %cmp15, label %if.then17, label %if.end19

if.then17:                                        ; preds = %if.end13
  %24 = load ptr, ptr %lexer.addr, align 8
  %25 = load ptr, ptr %start, align 8
  %26 = load ptr, ptr %p.addr, align 8
  %call18 = call i32 @stb__clex_token(ptr noundef %24, i32 noundef 257, ptr noundef %25, ptr noundef %26)
  store i32 %call18, ptr %retval, align 4
  br label %return

if.end19:                                         ; preds = %if.end13
  %27 = load i32, ptr %n, align 4
  %conv20 = trunc i32 %27 to i8
  %28 = load ptr, ptr %out, align 8
  %incdec.ptr21 = getelementptr inbounds i8, ptr %28, i32 1
  store ptr %incdec.ptr21, ptr %out, align 8
  store i8 %conv20, ptr %28, align 1
  br label %while.cond, !llvm.loop !7

while.end:                                        ; preds = %while.cond
  %29 = load ptr, ptr %out, align 8
  store i8 0, ptr %29, align 1
  %30 = load ptr, ptr %lexer.addr, align 8
  %string_storage22 = getelementptr inbounds %struct.stb_lexer, ptr %30, i32 0, i32 3
  %31 = load ptr, ptr %string_storage22, align 8
  %32 = load ptr, ptr %lexer.addr, align 8
  %string = getelementptr inbounds %struct.stb_lexer, ptr %32, i32 0, i32 10
  store ptr %31, ptr %string, align 8
  %33 = load ptr, ptr %out, align 8
  %34 = load ptr, ptr %lexer.addr, align 8
  %string_storage23 = getelementptr inbounds %struct.stb_lexer, ptr %34, i32 0, i32 3
  %35 = load ptr, ptr %string_storage23, align 8
  %sub.ptr.lhs.cast = ptrtoint ptr %33 to i64
  %sub.ptr.rhs.cast = ptrtoint ptr %35 to i64
  %sub.ptr.sub = sub i64 %sub.ptr.lhs.cast, %sub.ptr.rhs.cast
  %conv24 = trunc i64 %sub.ptr.sub to i32
  %36 = load ptr, ptr %lexer.addr, align 8
  %string_len = getelementptr inbounds %struct.stb_lexer, ptr %36, i32 0, i32 11
  store i32 %conv24, ptr %string_len, align 8
  %37 = load ptr, ptr %lexer.addr, align 8
  %38 = load i32, ptr %type.addr, align 4
  %39 = load ptr, ptr %start, align 8
  %40 = load ptr, ptr %p.addr, align 8
  %call25 = call i32 @stb__clex_token(ptr noundef %37, i32 noundef %38, ptr noundef %39, ptr noundef %40)
  store i32 %call25, ptr %retval, align 4
  br label %return

return:                                           ; preds = %while.end, %if.then17, %if.then9
  %41 = load i32, ptr %retval, align 4
  ret i32 %41
}