; Function Attrs: nofree norecurse nosync nounwind memory(readwrite, inaccessiblemem: none) uwtable
define noundef i32 @stb__clex_parse_string(ptr noundef captures(none) %lexer, ptr noundef %p, i32 noundef %type) local_unnamed_addr #5 {
entry:
  %q = alloca ptr, align 8
  %incdec.ptr = getelementptr inbounds nuw i8, ptr %p, i64 1
  %0 = load i8, ptr %p, align 1
  %string_storage = getelementptr inbounds nuw i8, ptr %lexer, i64 24
  %1 = load ptr, ptr %string_storage, align 8
  %string_storage_len = getelementptr inbounds nuw i8, ptr %lexer, i64 32
  %2 = load i32, ptr %string_storage_len, align 8
  %idx.ext = sext i32 %2 to i64
  %add.ptr = getelementptr inbounds i8, ptr %1, i64 %idx.ext
  %3 = load i8, ptr %incdec.ptr, align 1
  %cmp.not37 = icmp eq i8 %3, %0
  br i1 %cmp.not37, label %while.end, label %while.body

while.body:                                       ; preds = %entry, %if.end19
  %4 = phi i8 [ %7, %if.end19 ], [ %3, %entry ]
  %out.039 = phi ptr [ %add.ptr14, %if.end19 ], [ %1, %entry ]
  %p.addr.038 = phi ptr [ %p.addr.1, %if.end19 ], [ %incdec.ptr, %entry ]
  %cmp5 = icmp eq i8 %4, 92
  br i1 %cmp5, label %if.then, label %if.else

if.then:                                          ; preds = %while.body
  %call = call i32 @stb__clex_parse_char(ptr noundef nonnull %p.addr.038, ptr noundef nonnull %q)
  %cmp7 = icmp slt i32 %call, 0
  %5 = load ptr, ptr %q, align 8
  br i1 %cmp7, label %return, label %if.end

if.end:                                           ; preds = %if.then
  %6 = trunc i32 %call to i8
  br label %if.end13

if.else:                                          ; preds = %while.body
  %incdec.ptr11 = getelementptr inbounds nuw i8, ptr %p.addr.038, i64 1
  br label %if.end13

if.end13:                                         ; preds = %if.else, %if.end
  %p.addr.1 = phi ptr [ %5, %if.end ], [ %incdec.ptr11, %if.else ]
  %n.0 = phi i8 [ %6, %if.end ], [ %4, %if.else ]
  %add.ptr14 = getelementptr inbounds nuw i8, ptr %out.039, i64 1
  %cmp15 = icmp ugt ptr %add.ptr14, %add.ptr
  br i1 %cmp15, label %return, label %if.end19

if.end19:                                         ; preds = %if.end13
  store i8 %n.0, ptr %out.039, align 1
  %7 = load i8, ptr %p.addr.1, align 1
  %cmp.not = icmp eq i8 %7, %0
  br i1 %cmp.not, label %while.end, label %while.body, !llvm.loop !7

while.end:                                        ; preds = %if.end19, %entry
  %p.addr.0.lcssa = phi ptr [ %incdec.ptr, %entry ], [ %p.addr.1, %if.end19 ]
  %out.0.lcssa = phi ptr [ %1, %entry ], [ %add.ptr14, %if.end19 ]
  store i8 0, ptr %out.0.lcssa, align 1
  %8 = load ptr, ptr %string_storage, align 8
  %string = getelementptr inbounds nuw i8, ptr %lexer, i64 80
  store ptr %8, ptr %string, align 8
  %sub.ptr.lhs.cast = ptrtoint ptr %out.0.lcssa to i64
  %sub.ptr.rhs.cast = ptrtoint ptr %8 to i64
  %sub.ptr.sub = sub i64 %sub.ptr.lhs.cast, %sub.ptr.rhs.cast
  %conv24 = trunc i64 %sub.ptr.sub to i32
  %string_len = getelementptr inbounds nuw i8, ptr %lexer, i64 88
  store i32 %conv24, ptr %string_len, align 8
  %conv.i = sext i32 %type to i64
  br label %return

return:                                           ; preds = %if.end13, %if.then, %while.end
  %conv.i.sink = phi i64 [ %conv.i, %while.end ], [ 257, %if.then ], [ 257, %if.end13 ]
  %p.addr.0.lcssa.sink45 = phi ptr [ %p.addr.0.lcssa, %while.end ], [ %p.addr.1, %if.end13 ], [ %5, %if.then ]
  %token1.i28 = getelementptr inbounds nuw i8, ptr %lexer, i64 56
  store i64 %conv.i.sink, ptr %token1.i28, align 8
  %where_firstchar.i29 = getelementptr inbounds nuw i8, ptr %lexer, i64 40
  store ptr %p, ptr %where_firstchar.i29, align 8
  %where_lastchar.i30 = getelementptr inbounds nuw i8, ptr %lexer, i64 48
  store ptr %p.addr.0.lcssa.sink45, ptr %where_lastchar.i30, align 8
  %add.ptr.i31 = getelementptr inbounds nuw i8, ptr %p.addr.0.lcssa.sink45, i64 1
  %parse_point.i32 = getelementptr inbounds nuw i8, ptr %lexer, i64 16
  store ptr %add.ptr.i31, ptr %parse_point.i32, align 8
  ret i32 1
}